; Function Attrs: null_pointer_is_valid sspstrong uwtable
define internal i32 @dissect_e2ap_T_colletStartTime(ptr noundef %0, i32 noundef %1, ptr noundef %2, ptr noundef %3, i32 noundef %4) #2 {
  %6 = tail call i32 @dissect_per_octet_string(ptr noundef %0, i32 noundef %1, ptr noundef %2, ptr noundef %3, i32 noundef %4, i32 noundef 8, i32 noundef 8, i1 noundef zeroext false, ptr noundef null)
  %7 = add i32 %1, 7
  %8 = sdiv i32 %7, 8
  %9 = tail call ptr @tvb_ntp_fmt_ts_sec(ptr noundef %0, i32 noundef %8)
  %10 = load i32, ptr @hf_e2ap_timestamp_string, align 4
  %11 = tail call ptr @proto_tree_add_string(ptr noundef %3, i32 noundef %10, ptr noundef %0, i32 noundef %8, i32 noundef 4, ptr noundef %9)
  %.not.i = icmp eq ptr %11, null
  br i1 %.not.i, label %proto_item_set_generated.exit, label %12

12:                                               ; preds = %5
  %13 = getelementptr inbounds nuw i8, ptr %11, i64 40
  %14 = load ptr, ptr %13, align 8
  %.not5.i = icmp eq ptr %14, null
  br i1 %.not5.i, label %proto_item_set_generated.exit, label %15

15:                                               ; preds = %12
  %16 = getelementptr inbounds nuw i8, ptr %14, i64 28
  %17 = load i32, ptr %16, align 4
  %18 = or i32 %17, 2
  store i32 %18, ptr %16, align 4
  br label %proto_item_set_generated.exit

proto_item_set_generated.exit:                    ; preds = %5, %12, %15
  ret i32 %6
}